target datalayout = "e-m:e-p270:32:32-p271:32:32-p272:64:64-i64:64-i128:128-f80:128-n8:16:32:64-S128"
target triple = "x86_64-pc-linux-gnu"

%struct._lv_table_t = type { %struct._lv_obj_t, i32, i32, ptr, ptr, ptr, i32, i32 }
%struct._lv_obj_t = type { ptr, ptr, ptr, ptr, ptr, %struct.lv_area_t, i32, i16, i16 }
%struct.lv_area_t = type { i32, i32, i32, i32 }
%struct._lv_table_cell_t = type { i32, ptr, [1 x i8] }
%struct.lv_point_t = type { i32, i32 }

; Function Attrs: inlinehint nounwind uwtable
define internal zeroext i1 @is_cell_empty(ptr noundef %0) #4 {
  %2 = alloca ptr, align 8
  store ptr %0, ptr %2, align 8, !tbaa !37
  %3 = load ptr, ptr %2, align 8, !tbaa !37
  %4 = icmp eq ptr %3, null
  ret i1 %4
}

; Function Attrs: nounwind uwtable
define internal i32 @get_row_height(ptr noundef %0, i32 noundef %1, ptr noundef %2, i32 noundef %3, i32 noundef %4, i32 noundef %5, i32 noundef %6, i32 noundef %7, i32 noundef %8) #0 {
  %10 = alloca ptr, align 8
  %11 = alloca i32, align 4
  %12 = alloca ptr, align 8
  %13 = alloca i32, align 4
  %14 = alloca i32, align 4
  %15 = alloca i32, align 4
  %16 = alloca i32, align 4
  %17 = alloca i32, align 4
  %18 = alloca i32, align 4
  %19 = alloca ptr, align 8
  %20 = alloca i32, align 4
  %21 = alloca i32, align 4
  %22 = alloca i32, align 4
  %23 = alloca i32, align 4
  %24 = alloca ptr, align 8
  %25 = alloca i32, align 4
  %26 = alloca i32, align 4
  %27 = alloca i32, align 4
  %28 = alloca ptr, align 8
  %29 = alloca i32, align 4
  %30 = alloca i32, align 4
  %31 = alloca %struct.lv_point_t, align 4
  store ptr %0, ptr %10, align 8, !tbaa !8
  store i32 %1, ptr %11, align 4, !tbaa !25
  store ptr %2, ptr %12, align 8, !tbaa !55
  store i32 %3, ptr %13, align 4, !tbaa !25
  store i32 %4, ptr %14, align 4, !tbaa !25
  store i32 %5, ptr %15, align 4, !tbaa !25
  store i32 %6, ptr %16, align 4, !tbaa !25
  store i32 %7, ptr %17, align 4, !tbaa !25
  store i32 %8, ptr %18, align 4, !tbaa !25
  call void @llvm.lifetime.start.p0(i64 8, ptr %19) #6
  %32 = load ptr, ptr %10, align 8, !tbaa !8
  store ptr %32, ptr %19, align 8, !tbaa !10
  call void @llvm.lifetime.start.p0(i64 4, ptr %20) #6
  %33 = load ptr, ptr %12, align 8, !tbaa !55
  %34 = call i32 @lv_font_get_line_height(ptr noundef %33)
  %35 = load i32, ptr %17, align 4, !tbaa !25
  %36 = add nsw i32 %34, %35
  %37 = load i32, ptr %18, align 4, !tbaa !25
  %38 = add nsw i32 %36, %37
  store i32 %38, ptr %20, align 4, !tbaa !25
  call void @llvm.lifetime.start.p0(i64 4, ptr %21) #6
  %39 = load i32, ptr %11, align 4, !tbaa !25
  %40 = load ptr, ptr %19, align 8, !tbaa !10
  %41 = getelementptr inbounds nuw %struct._lv_table_t, ptr %40, i32 0, i32 1
  %42 = load i32, ptr %41, align 8, !tbaa !12
  %43 = mul i32 %39, %42
  store i32 %43, ptr %21, align 4, !tbaa !25
  call void @llvm.lifetime.start.p0(i64 4, ptr %22) #6
  call void @llvm.lifetime.start.p0(i64 4, ptr %23) #6
  %44 = load i32, ptr %21, align 4, !tbaa !25
  store i32 %44, ptr %22, align 4, !tbaa !25
  store i32 0, ptr %23, align 4, !tbaa !25
  br label %45

45:                                               ; preds = %198, %9
  %46 = load i32, ptr %22, align 4, !tbaa !25
  %47 = load i32, ptr %21, align 4, !tbaa !25
  %48 = load ptr, ptr %19, align 8, !tbaa !10
  %49 = getelementptr inbounds nuw %struct._lv_table_t, ptr %48, i32 0, i32 1
  %50 = load i32, ptr %49, align 8, !tbaa !12
  %51 = add i32 %47, %50
  %52 = icmp ult i32 %46, %51
  br i1 %52, label %53, label %203

53:                                               ; preds = %45
  call void @llvm.lifetime.start.p0(i64 8, ptr %24) #6
  %54 = load ptr, ptr %19, align 8, !tbaa !10
  %55 = getelementptr inbounds nuw %struct._lv_table_t, ptr %54, i32 0, i32 3
  %56 = load ptr, ptr %55, align 8, !tbaa !26
  %57 = load i32, ptr %22, align 4, !tbaa !25
  %58 = zext i32 %57 to i64
  %59 = getelementptr inbounds nuw ptr, ptr %56, i64 %58
  %60 = load ptr, ptr %59, align 8, !tbaa !27
  store ptr %60, ptr %24, align 8, !tbaa !27
  %61 = load ptr, ptr %24, align 8, !tbaa !27
  %62 = call zeroext i1 @is_cell_empty(ptr noundef %61)
  br i1 %62, label %63, label %64

63:                                               ; preds = %53
  store i32 4, ptr %25, align 4
  br label %195

64:                                               ; preds = %53
  call void @llvm.lifetime.start.p0(i64 4, ptr %26) #6
  %65 = load ptr, ptr %19, align 8, !tbaa !10
  %66 = getelementptr inbounds nuw %struct._lv_table_t, ptr %65, i32 0, i32 5
  %67 = load ptr, ptr %66, align 8, !tbaa !23
  %68 = load i32, ptr %23, align 4, !tbaa !25
  %69 = zext i32 %68 to i64
  %70 = getelementptr inbounds nuw i32, ptr %67, i64 %69
  %71 = load i32, ptr %70, align 4, !tbaa !25
  store i32 %71, ptr %26, align 4, !tbaa !25
  call void @llvm.lifetime.start.p0(i64 4, ptr %27) #6
  store i32 0, ptr %27, align 4, !tbaa !25
  store i32 0, ptr %27, align 4, !tbaa !25
  br label %72

72:                                               ; preds = %120, %64
  %73 = load i32, ptr %27, align 4, !tbaa !25
  %74 = load i32, ptr %23, align 4, !tbaa !25
  %75 = add i32 %73, %74
  %76 = load ptr, ptr %19, align 8, !tbaa !10
  %77 = getelementptr inbounds nuw %struct._lv_table_t, ptr %76, i32 0, i32 1
  %78 = load i32, ptr %77, align 8, !tbaa !12
  %79 = sub i32 %78, 1
  %80 = icmp ult i32 %75, %79
  br i1 %80, label %81, label %123

81:                                               ; preds = %72
  call void @llvm.lifetime.start.p0(i64 8, ptr %28) #6
  %82 = load ptr, ptr %19, align 8, !tbaa !10
  %83 = getelementptr inbounds nuw %struct._lv_table_t, ptr %82, i32 0, i32 3
  %84 = load ptr, ptr %83, align 8, !tbaa !26
  %85 = load i32, ptr %22, align 4, !tbaa !25
  %86 = load i32, ptr %27, align 4, !tbaa !25
  %87 = add i32 %85, %86
  %88 = zext i32 %87 to i64
  %89 = getelementptr inbounds nuw ptr, ptr %84, i64 %88
  %90 = load ptr, ptr %89, align 8, !tbaa !27
  store ptr %90, ptr %28, align 8, !tbaa !27
  %91 = load ptr, ptr %28, align 8, !tbaa !27
  %92 = call zeroext i1 @is_cell_empty(ptr noundef %91)
  br i1 %92, label %93, label %94

93:                                               ; preds = %81
  store i32 5, ptr %25, align 4
  br label %117

94:                                               ; preds = %81
  call void @llvm.lifetime.start.p0(i64 4, ptr %29) #6
  %95 = load ptr, ptr %28, align 8, !tbaa !27
  %96 = getelementptr inbounds nuw %struct._lv_table_cell_t, ptr %95, i32 0, i32 0
  %97 = load i32, ptr %96, align 8, !tbaa !47
  store i32 %97, ptr %29, align 4, !tbaa !25
  %98 = load i32, ptr %29, align 4, !tbaa !25
  %99 = and i32 %98, 1
  %100 = icmp ne i32 %99, 0
  br i1 %100, label %101, label %114

101:                                              ; preds = %94
  %102 = load ptr, ptr %19, align 8, !tbaa !10
  %103 = getelementptr inbounds nuw %struct._lv_table_t, ptr %102, i32 0, i32 5
  %104 = load ptr, ptr %103, align 8, !tbaa !23
  %105 = load i32, ptr %23, align 4, !tbaa !25
  %106 = load i32, ptr %27, align 4, !tbaa !25
  %107 = add i32 %105, %106
  %108 = add i32 %107, 1
  %109 = zext i32 %108 to i64
  %110 = getelementptr inbounds nuw i32, ptr %104, i64 %109
  %111 = load i32, ptr %110, align 4, !tbaa !25
  %112 = load i32, ptr %26, align 4, !tbaa !25
  %113 = add nsw i32 %112, %111
  store i32 %113, ptr %26, align 4, !tbaa !25
  br label %115

114:                                              ; preds = %94
  store i32 5, ptr %25, align 4
  br label %116

115:                                              ; preds = %101
  store i32 0, ptr %25, align 4
  br label %116

116:                                              ; preds = %115, %114
  call void @llvm.lifetime.end.p0(i64 4, ptr %29) #6
  br label %117

117:                                              ; preds = %116, %93
  call void @llvm.lifetime.end.p0(i64 8, ptr %28) #6
  %118 = load i32, ptr %25, align 4
  switch i32 %118, label %205 [
    i32 0, label %119
    i32 5, label %123
  ]

119:                                              ; preds = %117
  br label %120

120:                                              ; preds = %119
  %121 = load i32, ptr %27, align 4, !tbaa !25
  %122 = add i32 %121, 1
  store i32 %122, ptr %27, align 4, !tbaa !25
  br label %72, !llvm.loop !100

123:                                              ; preds = %117, %72
  call void @llvm.lifetime.start.p0(i64 4, ptr %30) #6
  %124 = load ptr, ptr %24, align 8, !tbaa !27
  %125 = getelementptr inbounds nuw %struct._lv_table_cell_t, ptr %124, i32 0, i32 0
  %126 = load i32, ptr %125, align 8, !tbaa !47
  store i32 %126, ptr %30, align 4, !tbaa !25
  %127 = load i32, ptr %30, align 4, !tbaa !25
  %128 = and i32 %127, 2
  %129 = icmp ne i32 %128, 0
  br i1 %129, label %130, label %150

130:                                              ; preds = %123
  %131 = load ptr, ptr %12, align 8, !tbaa !55
  %132 = call i32 @lv_font_get_line_height(ptr noundef %131)
  %133 = load i32, ptr %17, align 4, !tbaa !25
  %134 = add nsw i32 %132, %133
  %135 = load i32, ptr %18, align 4, !tbaa !25
  %136 = add nsw i32 %134, %135
  %137 = load i32, ptr %20, align 4, !tbaa !25
  %138 = icmp sgt i32 %136, %137
  br i1 %138, label %139, label %146

139:                                              ; preds = %130
  %140 = load ptr, ptr %12, align 8, !tbaa !55
  %141 = call i32 @lv_font_get_line_height(ptr noundef %140)
  %142 = load i32, ptr %17, align 4, !tbaa !25
  %143 = add nsw i32 %141, %142
  %144 = load i32, ptr %18, align 4, !tbaa !25
  %145 = add nsw i32 %143, %144
  br label %148

146:                                              ; preds = %130
  %147 = load i32, ptr %20, align 4, !tbaa !25
  br label %148

148:                                              ; preds = %146, %139
  %149 = phi i32 [ %145, %139 ], [ %147, %146 ]
  store i32 %149, ptr %20, align 4, !tbaa !25
  br label %194

150:                                              ; preds = %123
  call void @llvm.lifetime.start.p0(i64 8, ptr %31) #6
  %151 = load i32, ptr %15, align 4, !tbaa !25
  %152 = load i32, ptr %16, align 4, !tbaa !25
  %153 = add nsw i32 %151, %152
  %154 = load i32, ptr %26, align 4, !tbaa !25
  %155 = sub nsw i32 %154, %153
  store i32 %155, ptr %26, align 4, !tbaa !25
  %156 = load ptr, ptr %19, align 8, !tbaa !10
  %157 = getelementptr inbounds nuw %struct._lv_table_t, ptr %156, i32 0, i32 3
  %158 = load ptr, ptr %157, align 8, !tbaa !26
  %159 = load i32, ptr %22, align 4, !tbaa !25
  %160 = zext i32 %159 to i64
  %161 = getelementptr inbounds nuw ptr, ptr %158, i64 %160
  %162 = load ptr, ptr %161, align 8, !tbaa !27
  %163 = getelementptr inbounds nuw %struct._lv_table_cell_t, ptr %162, i32 0, i32 2
  %164 = getelementptr inbounds [1 x i8], ptr %163, i64 0, i64 0
  %165 = load ptr, ptr %12, align 8, !tbaa !55
  %166 = load i32, ptr %13, align 4, !tbaa !25
  %167 = load i32, ptr %14, align 4, !tbaa !25
  %168 = load i32, ptr %26, align 4, !tbaa !25
  call void @lv_text_get_size(ptr noundef %31, ptr noundef %164, ptr noundef %165, i32 noundef %166, i32 noundef %167, i32 noundef %168, i32 noundef 0)
  %169 = getelementptr inbounds nuw %struct.lv_point_t, ptr %31, i32 0, i32 1
  %170 = load i32, ptr %169, align 4, !tbaa !42
  %171 = load i32, ptr %17, align 4, !tbaa !25
  %172 = add nsw i32 %170, %171
  %173 = load i32, ptr %18, align 4, !tbaa !25
  %174 = add nsw i32 %172, %173
  %175 = load i32, ptr %20, align 4, !tbaa !25
  %176 = icmp sgt i32 %174, %175
  br i1 %176, label %177, label %184

177:                                              ; preds = %150
  %178 = getelementptr inbounds nuw %struct.lv_point_t, ptr %31, i32 0, i32 1
  %179 = load i32, ptr %178, align 4, !tbaa !42
  %180 = load i32, ptr %17, align 4, !tbaa !25
  %181 = add nsw i32 %179, %180
  %182 = load i32, ptr %18, align 4, !tbaa !25
  %183 = add nsw i32 %181, %182
  br label %186

184:                                              ; preds = %150
  %185 = load i32, ptr %20, align 4, !tbaa !25
  br label %186

186:                                              ; preds = %184, %177
  %187 = phi i32 [ %183, %177 ], [ %185, %184 ]
  store i32 %187, ptr %20, align 4, !tbaa !25
  %188 = load i32, ptr %27, align 4, !tbaa !25
  %189 = load i32, ptr %22, align 4, !tbaa !25
  %190 = add i32 %189, %188
  store i32 %190, ptr %22, align 4, !tbaa !25
  %191 = load i32, ptr %27, align 4, !tbaa !25
  %192 = load i32, ptr %23, align 4, !tbaa !25
  %193 = add i32 %192, %191
  store i32 %193, ptr %23, align 4, !tbaa !25
  call void @llvm.lifetime.end.p0(i64 8, ptr %31) #6
  br label %194

194:                                              ; preds = %186, %148
  call void @llvm.lifetime.end.p0(i64 4, ptr %30) #6
  call void @llvm.lifetime.end.p0(i64 4, ptr %27) #6
  call void @llvm.lifetime.end.p0(i64 4, ptr %26) #6
  store i32 0, ptr %25, align 4
  br label %195

195:                                              ; preds = %194, %63
  call void @llvm.lifetime.end.p0(i64 8, ptr %24) #6
  %196 = load i32, ptr %25, align 4
  switch i32 %196, label %205 [
    i32 0, label %197
    i32 4, label %198
  ]

197:                                              ; preds = %195
  br label %198

198:                                              ; preds = %197, %195
  %199 = load i32, ptr %22, align 4, !tbaa !25
  %200 = add i32 %199, 1
  store i32 %200, ptr %22, align 4, !tbaa !25
  %201 = load i32, ptr %23, align 4, !tbaa !25
  %202 = add i32 %201, 1
  store i32 %202, ptr %23, align 4, !tbaa !25
  br label %45, !llvm.loop !101

203:                                              ; preds = %45
  %204 = load i32, ptr %20, align 4, !tbaa !25
  store i32 1, ptr %25, align 4
  call void @llvm.lifetime.end.p0(i64 4, ptr %23) #6
  call void @llvm.lifetime.end.p0(i64 4, ptr %22) #6
  call void @llvm.lifetime.end.p0(i64 4, ptr %21) #6
  call void @llvm.lifetime.end.p0(i64 4, ptr %20) #6
  call void @llvm.lifetime.end.p0(i64 8, ptr %19) #6
  ret i32 %204

205:                                              ; preds = %195, %117
  unreachable
}