; Function Attrs: nounwind uwtable
define internal fastcc i32 @get_row_height(ptr noundef readonly captures(none) %0, i32 noundef %1, ptr noundef %2, i32 noundef %3, i32 noundef %4, i32 noundef %5, i32 noundef %6, i32 noundef %7, i32 noundef %8) unnamed_addr #0 {
  %10 = alloca %struct.lv_point_t, align 4
  %11 = tail call i32 @lv_font_get_line_height(ptr noundef %2) #9
  %12 = add i32 %8, %7
  %13 = add i32 %12, %11
  %14 = getelementptr inbounds nuw i8, ptr %0, i64 64
  %15 = load i32, ptr %14, align 8, !tbaa !3
  %16 = mul i32 %15, %1
  %17 = add i32 %15, %16
  %18 = icmp ult i32 %16, %17
  br i1 %18, label %.lr.ph96, label %._crit_edge

.lr.ph96:                                         ; preds = %9
  %19 = getelementptr inbounds nuw i8, ptr %0, i64 72
  %20 = getelementptr inbounds nuw i8, ptr %0, i64 88
  %21 = add i32 %6, %5
  %22 = getelementptr inbounds nuw i8, ptr %10, i64 4
  br label %23

23:                                               ; preds = %.lr.ph96, %68
  %24 = phi i32 [ %15, %.lr.ph96 ], [ %71, %68 ]
  %.095 = phi i32 [ %13, %.lr.ph96 ], [ %.1, %68 ]
  %.06194 = phi i32 [ %16, %.lr.ph96 ], [ %69, %68 ]
  %.06493 = phi i32 [ 0, %.lr.ph96 ], [ %70, %68 ]
  %25 = load ptr, ptr %19, align 8, !tbaa !22
  %26 = zext i32 %.06194 to i64
  %27 = getelementptr inbounds nuw ptr, ptr %25, i64 %26
  %28 = load ptr, ptr %27, align 8, !tbaa !23
  %29 = icmp eq ptr %28, null
  br i1 %29, label %68, label %30

30:                                               ; preds = %23
  %31 = load ptr, ptr %20, align 8, !tbaa !19
  %32 = zext i32 %.06493 to i64
  %33 = getelementptr inbounds nuw i32, ptr %31, i64 %32
  %34 = load i32, ptr %33, align 4, !tbaa !21
  %35 = add i32 %24, -1
  %36 = icmp ult i32 %.06493, %35
  br i1 %36, label %.lr.ph.preheader, label %.thread

.lr.ph.preheader:                                 ; preds = %30
  %37 = sub nuw i32 %35, %.06493
  %invariant.gep = getelementptr inbounds nuw i8, ptr %31, i64 4
  br label %.lr.ph

.lr.ph:                                           ; preds = %.lr.ph.preheader, %48
  %indvars.iv = phi i64 [ 0, %.lr.ph.preheader ], [ %indvars.iv.next, %48 ]
  %.06881 = phi i32 [ %34, %.lr.ph.preheader ], [ %50, %48 ]
  %38 = add nuw nsw i64 %indvars.iv, %32
  %39 = trunc nuw i64 %indvars.iv to i32
  %40 = add i32 %.06194, %39
  %41 = zext i32 %40 to i64
  %42 = getelementptr inbounds nuw ptr, ptr %25, i64 %41
  %43 = load ptr, ptr %42, align 8, !tbaa !23
  %44 = icmp eq ptr %43, null
  br i1 %44, label %.thread.loopexit.split.loop.exit99, label %45

45:                                               ; preds = %.lr.ph
  %46 = load i32, ptr %43, align 8, !tbaa !41
  %47 = and i32 %46, 1
  %.not = icmp eq i32 %47, 0
  br i1 %.not, label %.thread.loopexit.split.loop.exit, label %48

48:                                               ; preds = %45
  %gep = getelementptr inbounds nuw i32, ptr %invariant.gep, i64 %38
  %49 = load i32, ptr %gep, align 4, !tbaa !21
  %50 = add nsw i32 %49, %.06881
  %indvars.iv.next = add nuw nsw i64 %indvars.iv, 1
  %lftr.wideiv = trunc i64 %indvars.iv.next to i32
  %exitcond.not = icmp eq i32 %37, %lftr.wideiv
  br i1 %exitcond.not, label %.thread, label %.lr.ph, !llvm.loop !80

.thread.loopexit.split.loop.exit:                 ; preds = %45
  %51 = trunc nuw i64 %38 to i32
  br label %.thread

.thread.loopexit.split.loop.exit99:               ; preds = %.lr.ph
  %52 = trunc nuw i64 %38 to i32
  br label %.thread

.thread:                                          ; preds = %48, %.thread.loopexit.split.loop.exit, %.thread.loopexit.split.loop.exit99, %30
  %.068.lcssa = phi i32 [ %34, %30 ], [ %.06881, %.thread.loopexit.split.loop.exit ], [ %.06881, %.thread.loopexit.split.loop.exit99 ], [ %50, %48 ]
  %.067.lcssa = phi i32 [ 0, %30 ], [ %39, %.thread.loopexit.split.loop.exit ], [ %39, %.thread.loopexit.split.loop.exit99 ], [ %37, %48 ]
  %.lcssa = phi i32 [ %.06493, %30 ], [ %51, %.thread.loopexit.split.loop.exit ], [ %52, %.thread.loopexit.split.loop.exit99 ], [ %35, %48 ]
  %53 = load i32, ptr %28, align 8, !tbaa !41
  %54 = and i32 %53, 2
  %.not75 = icmp eq i32 %54, 0
  br i1 %.not75, label %62, label %55

55:                                               ; preds = %.thread
  %56 = call i32 @lv_font_get_line_height(ptr noundef %2) #9
  %57 = add i32 %12, %56
  %58 = icmp sgt i32 %57, %.095
  br i1 %58, label %59, label %68

59:                                               ; preds = %55
  %60 = call i32 @lv_font_get_line_height(ptr noundef %2) #9
  %61 = add i32 %12, %60
  br label %68

62:                                               ; preds = %.thread
  call void @llvm.lifetime.start.p0(i64 8, ptr nonnull %10) #9
  %63 = sub i32 %.068.lcssa, %21
  %64 = getelementptr inbounds nuw i8, ptr %28, i64 16
  call void @lv_text_get_size(ptr noundef nonnull %10, ptr noundef nonnull %64, ptr noundef %2, i32 noundef %3, i32 noundef %4, i32 noundef %63, i32 noundef 0) #9
  %65 = load i32, ptr %22, align 4, !tbaa !35
  %66 = add i32 %12, %65
  %..0 = call i32 @llvm.smax.i32(i32 %66, i32 %.095)
  %67 = add i32 %.067.lcssa, %.06194
  call void @llvm.lifetime.end.p0(i64 8, ptr nonnull %10) #9
  br label %68

68:                                               ; preds = %62, %55, %59, %23
  %.165 = phi i32 [ %.06493, %23 ], [ %.lcssa, %62 ], [ %.06493, %55 ], [ %.06493, %59 ]
  %.162 = phi i32 [ %.06194, %23 ], [ %67, %62 ], [ %.06194, %55 ], [ %.06194, %59 ]
  %.1 = phi i32 [ %.095, %23 ], [ %..0, %62 ], [ %.095, %55 ], [ %61, %59 ]
  %69 = add i32 %.162, 1
  %70 = add i32 %.165, 1
  %71 = load i32, ptr %14, align 8, !tbaa !3
  %72 = add i32 %71, %16
  %73 = icmp ult i32 %69, %72
  br i1 %73, label %23, label %._crit_edge, !llvm.loop !81

._crit_edge:                                      ; preds = %68, %9
  %.0.lcssa = phi i32 [ %13, %9 ], [ %.1, %68 ]
  ret i32 %.0.lcssa
}